target datalayout = "e-m:e-p270:32:32-p271:32:32-p272:64:64-i64:64-i128:128-f80:128-n8:16:32:64-S128"
target triple = "x86_64-pc-linux-gnu"

%struct.ssl_connection_st = type { %struct.ssl_st, ptr, i32, ptr, ptr, ptr, i32, ptr, i32, i32, i32, i32, %struct.OSSL_TIME, %struct.OSSL_TIME, %struct.ossl_statem_st, i32, ptr, ptr, i64, i64, i64, %struct.ossl_quic_tls_callbacks_st, ptr, ptr, %struct.anon, ptr, ptr, ptr, i32, ptr, %struct.ssl_dane_st, ptr, ptr, ptr, ptr, i32, [64 x i8], [64 x i8], [64 x i8], [64 x i8], [64 x i8], [64 x i8], [64 x i8], [64 x i8], [64 x i8], [64 x i8], [64 x i8], [64 x i8], ptr, [64 x i8], i64, i32, i64, [32 x i8], ptr, ptr, ptr, i64, ptr, [32 x i8], i64, i32, ptr, ptr, i32, i32, ptr, ptr, ptr, ptr, ptr, i64, ptr, ptr, i64, i32, i32, i32, i64, i32, i32, i64, i64, i64, %struct.anon.1, ptr, i32, ptr, ptr, ptr, i32, ptr, ptr, ptr, i32, i32, i32, i32, ptr, i64, i32, ptr, %struct.srp_ctx_st, ptr, %struct.record_layer_st, ptr, ptr, ptr, ptr, i64, i32, i32, i32, i64, i64, i64, ptr, ptr, ptr, ptr, ptr, i64, ptr, i64, ptr, i64 }
%struct.ssl_st = type { i32, ptr, ptr, ptr, %struct.CRYPTO_REF_COUNT, ptr, %struct.crypto_ex_data_st }
%struct.CRYPTO_REF_COUNT = type { i32 }
%struct.crypto_ex_data_st = type { ptr, ptr }
%struct.OSSL_TIME = type { i64 }
%struct.ossl_statem_st = type { i32, i32, i32, i32, i32, i32, i32, i32, i32, i32, i32, i32, i32, ptr, ptr, ptr, i8 }
%struct.ossl_quic_tls_callbacks_st = type { ptr, ptr, ptr, ptr, ptr, ptr }
%struct.anon = type { i64, [32 x i8], [32 x i8], ptr, ptr, i32, i32, i32, i32, [2 x i8], i32, i32, i32, i32, %struct.anon.0, [64 x i8], i64, [64 x i8], i64, i32, i32, ptr, i64, ptr, i64, i32, i8, i8, i16, ptr, i16 }
%struct.anon.0 = type { [128 x i8], i64, [128 x i8], i64, i64, i32, ptr, ptr, [4 x ptr], [4 x i16], i64, i32, ptr, i64, ptr, i64, ptr, ptr, ptr, i32, i64, ptr, i32, ptr, i64, ptr, i64, ptr, i64, ptr, ptr, ptr, ptr, i64, i64, ptr, ptr, i32, i32, i32, i32 }
%struct.ssl_dane_st = type { ptr, ptr, ptr, ptr, ptr, i32, i32, i32, i64 }
%struct.anon.1 = type { [29 x i8], ptr, ptr, ptr, i32, ptr, i16, i32, %struct.anon.2, i32, i32, i64, ptr, i64, ptr, i64, ptr, i64, ptr, i64, ptr, i64, ptr, ptr, ptr, ptr, ptr, ptr, ptr, i64, ptr, i64, i32, i32, i32, i32, ptr, i64, i32, i8, i32, [4 x i32], i32, i8, i8, i8, i8 }
%struct.anon.2 = type { ptr, ptr, ptr, i64 }
%struct.srp_ctx_st = type { ptr, ptr, ptr, ptr, ptr, ptr, ptr, ptr, ptr, ptr, ptr, ptr, ptr, ptr, i32, i64 }
%struct.record_layer_st = type { ptr, ptr, ptr, ptr, ptr, ptr, ptr, ptr, i64, i32, i64, [4 x i8], i64, i64, i8, ptr, i32, ptr, ptr, ptr, i64, i64, i64, i64, [32 x %struct.tls_record_st] }
%struct.tls_record_st = type { ptr, i32, i8, ptr, ptr, i64, i64, i16, [8 x i8] }
%struct.PACKET = type { ptr, i64 }

@.str.1 = private unnamed_addr constant [36 x i8] c"../openssl/ssl/statem/statem_srvr.c\00", align 1
@__func__.tls_process_next_proto = private unnamed_addr constant [23 x i8] c"tls_process_next_proto\00", align 1
@.str.8 = private unnamed_addr constant [37 x i8] c"../openssl/include/internal/packet.h\00", align 1

; Function Attrs: inlinehint nounwind uwtable
define internal i32 @PACKET_peek_bytes(ptr noundef %0, ptr noundef %1, i64 noundef %2) #3 {
  %4 = alloca i32, align 4
  %5 = alloca ptr, align 8
  %6 = alloca ptr, align 8
  %7 = alloca i64, align 8
  store ptr %0, ptr %5, align 8, !tbaa !3
  store ptr %1, ptr %6, align 8, !tbaa !7
  store i64 %2, ptr %7, align 8, !tbaa !9
  %8 = load ptr, ptr %5, align 8, !tbaa !3
  %9 = call i64 @PACKET_remaining(ptr noundef %8)
  %10 = load i64, ptr %7, align 8, !tbaa !9
  %11 = icmp ult i64 %9, %10
  br i1 %11, label %12, label %13

12:                                               ; preds = %3
  store i32 0, ptr %4, align 4
  br label %18

13:                                               ; preds = %3
  %14 = load ptr, ptr %5, align 8, !tbaa !3
  %15 = getelementptr inbounds nuw %struct.PACKET, ptr %14, i32 0, i32 0
  %16 = load ptr, ptr %15, align 8, !tbaa !256
  %17 = load ptr, ptr %6, align 8, !tbaa !7
  store ptr %16, ptr %17, align 8, !tbaa !168
  store i32 1, ptr %4, align 4
  br label %18

18:                                               ; preds = %13, %12
  %19 = load i32, ptr %4, align 4
  ret i32 %19
}

; Function Attrs: inlinehint nounwind uwtable
define internal void @packet_forward(ptr noundef %0, i64 noundef %1) #3 {
  %3 = alloca ptr, align 8
  %4 = alloca i64, align 8
  store ptr %0, ptr %3, align 8, !tbaa !3
  store i64 %1, ptr %4, align 8, !tbaa !9
  %5 = load i64, ptr %4, align 8, !tbaa !9
  %6 = load ptr, ptr %3, align 8, !tbaa !3
  %7 = getelementptr inbounds nuw %struct.PACKET, ptr %6, i32 0, i32 0
  %8 = load ptr, ptr %7, align 8, !tbaa !256
  %9 = getelementptr inbounds nuw i8, ptr %8, i64 %5
  store ptr %9, ptr %7, align 8, !tbaa !256
  %10 = load i64, ptr %4, align 8, !tbaa !9
  %11 = load ptr, ptr %3, align 8, !tbaa !3
  %12 = getelementptr inbounds nuw %struct.PACKET, ptr %11, i32 0, i32 1
  %13 = load i64, ptr %12, align 8, !tbaa !257
  %14 = sub i64 %13, %10
  store i64 %14, ptr %12, align 8, !tbaa !257
  ret void
}

; Function Attrs: inlinehint nounwind uwtable
define internal i32 @PACKET_peek_1(ptr noundef %0, ptr noundef %1) #3 {
  %3 = alloca i32, align 4
  %4 = alloca ptr, align 8
  %5 = alloca ptr, align 8
  store ptr %0, ptr %4, align 8, !tbaa !3
  store ptr %1, ptr %5, align 8, !tbaa !144
  %6 = load ptr, ptr %4, align 8, !tbaa !3
  %7 = call i64 @PACKET_remaining(ptr noundef %6)
  %8 = icmp ne i64 %7, 0
  br i1 %8, label %10, label %9

9:                                                ; preds = %2
  store i32 0, ptr %3, align 4
  br label %17

10:                                               ; preds = %2
  %11 = load ptr, ptr %4, align 8, !tbaa !3
  %12 = getelementptr inbounds nuw %struct.PACKET, ptr %11, i32 0, i32 0
  %13 = load ptr, ptr %12, align 8, !tbaa !256
  %14 = load i8, ptr %13, align 1, !tbaa !211
  %15 = zext i8 %14 to i32
  %16 = load ptr, ptr %5, align 8, !tbaa !144
  store i32 %15, ptr %16, align 4, !tbaa !13
  store i32 1, ptr %3, align 4
  br label %17

17:                                               ; preds = %10, %9
  %18 = load i32, ptr %3, align 4
  ret i32 %18
}

; Function Attrs: inlinehint nounwind uwtable
define internal i32 @PACKET_get_bytes(ptr noundef %0, ptr noundef %1, i64 noundef %2) #3 {
  %4 = alloca i32, align 4
  %5 = alloca ptr, align 8
  %6 = alloca ptr, align 8
  %7 = alloca i64, align 8
  store ptr %0, ptr %5, align 8, !tbaa !3
  store ptr %1, ptr %6, align 8, !tbaa !7
  store i64 %2, ptr %7, align 8, !tbaa !9
  %8 = load ptr, ptr %5, align 8, !tbaa !3
  %9 = load ptr, ptr %6, align 8, !tbaa !7
  %10 = load i64, ptr %7, align 8, !tbaa !9
  %11 = call i32 @PACKET_peek_bytes(ptr noundef %8, ptr noundef %9, i64 noundef %10)
  %12 = icmp ne i32 %11, 0
  br i1 %12, label %14, label %13

13:                                               ; preds = %3
  store i32 0, ptr %4, align 4
  br label %17

14:                                               ; preds = %3
  %15 = load ptr, ptr %5, align 8, !tbaa !3
  %16 = load i64, ptr %7, align 8, !tbaa !9
  call void @packet_forward(ptr noundef %15, i64 noundef %16)
  store i32 1, ptr %4, align 4
  br label %17

17:                                               ; preds = %14, %13
  %18 = load i32, ptr %4, align 4
  ret i32 %18
}

; Function Attrs: inlinehint nounwind uwtable
define internal i32 @PACKET_get_1(ptr noundef %0, ptr noundef %1) #3 {
  %3 = alloca i32, align 4
  %4 = alloca ptr, align 8
  %5 = alloca ptr, align 8
  store ptr %0, ptr %4, align 8, !tbaa !3
  store ptr %1, ptr %5, align 8, !tbaa !144
  %6 = load ptr, ptr %4, align 8, !tbaa !3
  %7 = load ptr, ptr %5, align 8, !tbaa !144
  %8 = call i32 @PACKET_peek_1(ptr noundef %6, ptr noundef %7)
  %9 = icmp ne i32 %8, 0
  br i1 %9, label %11, label %10

10:                                               ; preds = %2
  store i32 0, ptr %3, align 4
  br label %13

11:                                               ; preds = %2
  %12 = load ptr, ptr %4, align 8, !tbaa !3
  call void @packet_forward(ptr noundef %12, i64 noundef 1)
  store i32 1, ptr %3, align 4
  br label %13

13:                                               ; preds = %11, %10
  %14 = load i32, ptr %3, align 4
  ret i32 %14
}

; Function Attrs: inlinehint nounwind uwtable
define internal i32 @PACKET_memdup(ptr noundef %0, ptr noundef %1, ptr noundef %2) #3 {
  %4 = alloca i32, align 4
  %5 = alloca ptr, align 8
  %6 = alloca ptr, align 8
  %7 = alloca ptr, align 8
  %8 = alloca i64, align 8
  %9 = alloca i32, align 4
  store ptr %0, ptr %5, align 8, !tbaa !3
  store ptr %1, ptr %6, align 8, !tbaa !7
  store ptr %2, ptr %7, align 8, !tbaa !258
  call void @llvm.lifetime.start.p0(i64 8, ptr %8) #9
  %10 = load ptr, ptr %6, align 8, !tbaa !7
  %11 = load ptr, ptr %10, align 8, !tbaa !168
  call void @CRYPTO_free(ptr noundef %11, ptr noundef @.str.8, i32 noundef 454)
  %12 = load ptr, ptr %6, align 8, !tbaa !7
  store ptr null, ptr %12, align 8, !tbaa !168
  %13 = load ptr, ptr %7, align 8, !tbaa !258
  store i64 0, ptr %13, align 8, !tbaa !9
  %14 = load ptr, ptr %5, align 8, !tbaa !3
  %15 = call i64 @PACKET_remaining(ptr noundef %14)
  store i64 %15, ptr %8, align 8, !tbaa !9
  %16 = load i64, ptr %8, align 8, !tbaa !9
  %17 = icmp eq i64 %16, 0
  br i1 %17, label %18, label %19

18:                                               ; preds = %3
  store i32 1, ptr %4, align 4
  store i32 1, ptr %9, align 4
  br label %33

19:                                               ; preds = %3
  %20 = load ptr, ptr %5, align 8, !tbaa !3
  %21 = getelementptr inbounds nuw %struct.PACKET, ptr %20, i32 0, i32 0
  %22 = load ptr, ptr %21, align 8, !tbaa !256
  %23 = load i64, ptr %8, align 8, !tbaa !9
  %24 = call noalias ptr @CRYPTO_memdup(ptr noundef %22, i64 noundef %23, ptr noundef @.str.8, i32 noundef 463)
  %25 = load ptr, ptr %6, align 8, !tbaa !7
  store ptr %24, ptr %25, align 8, !tbaa !168
  %26 = load ptr, ptr %6, align 8, !tbaa !7
  %27 = load ptr, ptr %26, align 8, !tbaa !168
  %28 = icmp eq ptr %27, null
  br i1 %28, label %29, label %30

29:                                               ; preds = %19
  store i32 0, ptr %4, align 4
  store i32 1, ptr %9, align 4
  br label %33

30:                                               ; preds = %19
  %31 = load i64, ptr %8, align 8, !tbaa !9
  %32 = load ptr, ptr %7, align 8, !tbaa !258
  store i64 %31, ptr %32, align 8, !tbaa !9
  store i32 1, ptr %4, align 4
  store i32 1, ptr %9, align 4
  br label %33

33:                                               ; preds = %30, %29, %18
  call void @llvm.lifetime.end.p0(i64 8, ptr %8) #9
  %34 = load i32, ptr %4, align 4
  ret i32 %34
}

; Function Attrs: inlinehint nounwind uwtable
define internal i64 @PACKET_remaining(ptr noundef %0) #3 {
  %2 = alloca ptr, align 8
  store ptr %0, ptr %2, align 8, !tbaa !3
  %3 = load ptr, ptr %2, align 8, !tbaa !3
  %4 = getelementptr inbounds nuw %struct.PACKET, ptr %3, i32 0, i32 1
  %5 = load i64, ptr %4, align 8, !tbaa !257
  ret i64 %5
}

; Function Attrs: inlinehint nounwind uwtable
define internal i32 @PACKET_get_length_prefixed_1(ptr noundef %0, ptr noundef %1) #3 {
  %3 = alloca i32, align 4
  %4 = alloca ptr, align 8
  %5 = alloca ptr, align 8
  %6 = alloca i32, align 4
  %7 = alloca ptr, align 8
  %8 = alloca %struct.PACKET, align 8
  %9 = alloca i32, align 4
  store ptr %0, ptr %4, align 8, !tbaa !3
  store ptr %1, ptr %5, align 8, !tbaa !3
  call void @llvm.lifetime.start.p0(i64 4, ptr %6) #9
  call void @llvm.lifetime.start.p0(i64 8, ptr %7) #9
  call void @llvm.lifetime.start.p0(i64 16, ptr %8) #9
  %10 = load ptr, ptr %4, align 8, !tbaa !3
  call void @llvm.memcpy.p0.p0.i64(ptr align 8 %8, ptr align 8 %10, i64 16, i1 false), !tbaa.struct !234
  %11 = call i32 @PACKET_get_1(ptr noundef %8, ptr noundef %6)
  %12 = icmp ne i32 %11, 0
  br i1 %12, label %13, label %18

13:                                               ; preds = %2
  %14 = load i32, ptr %6, align 4, !tbaa !13
  %15 = zext i32 %14 to i64
  %16 = call i32 @PACKET_get_bytes(ptr noundef %8, ptr noundef %7, i64 noundef %15)
  %17 = icmp ne i32 %16, 0
  br i1 %17, label %19, label %18

18:                                               ; preds = %13, %2
  store i32 0, ptr %3, align 4
  store i32 1, ptr %9, align 4
  br label %28

19:                                               ; preds = %13
  %20 = load ptr, ptr %4, align 8, !tbaa !3
  call void @llvm.memcpy.p0.p0.i64(ptr align 8 %20, ptr align 8 %8, i64 16, i1 false), !tbaa.struct !234
  %21 = load ptr, ptr %7, align 8, !tbaa !168
  %22 = load ptr, ptr %5, align 8, !tbaa !3
  %23 = getelementptr inbounds nuw %struct.PACKET, ptr %22, i32 0, i32 0
  store ptr %21, ptr %23, align 8, !tbaa !256
  %24 = load i32, ptr %6, align 4, !tbaa !13
  %25 = zext i32 %24 to i64
  %26 = load ptr, ptr %5, align 8, !tbaa !3
  %27 = getelementptr inbounds nuw %struct.PACKET, ptr %26, i32 0, i32 1
  store i64 %25, ptr %27, align 8, !tbaa !257
  store i32 1, ptr %3, align 4
  store i32 1, ptr %9, align 4
  br label %28

28:                                               ; preds = %19, %18
  call void @llvm.lifetime.end.p0(i64 16, ptr %8) #9
  call void @llvm.lifetime.end.p0(i64 8, ptr %7) #9
  call void @llvm.lifetime.end.p0(i64 4, ptr %6) #9
  %29 = load i32, ptr %3, align 4
  ret i32 %29
}

; Function Attrs: nounwind uwtable
define i32 @tls_process_next_proto(ptr noundef %0, ptr noundef %1) #0 {
  %3 = alloca i32, align 4
  %4 = alloca ptr, align 8
  %5 = alloca ptr, align 8
  %6 = alloca %struct.PACKET, align 8
  %7 = alloca %struct.PACKET, align 8
  %8 = alloca i64, align 8
  %9 = alloca i32, align 4
  store ptr %0, ptr %4, align 8, !tbaa !11
  store ptr %1, ptr %5, align 8, !tbaa !3
  call void @llvm.lifetime.start.p0(i64 16, ptr %6) #9
  call void @llvm.lifetime.start.p0(i64 16, ptr %7) #9
  call void @llvm.lifetime.start.p0(i64 8, ptr %8) #9
  %10 = load ptr, ptr %5, align 8, !tbaa !3
  %11 = call i32 @PACKET_get_length_prefixed_1(ptr noundef %10, ptr noundef %6)
  %12 = icmp ne i32 %11, 0
  br i1 %12, label %13, label %21

13:                                               ; preds = %2
  %14 = load ptr, ptr %5, align 8, !tbaa !3
  %15 = call i32 @PACKET_get_length_prefixed_1(ptr noundef %14, ptr noundef %7)
  %16 = icmp ne i32 %15, 0
  br i1 %16, label %17, label %21

17:                                               ; preds = %13
  %18 = load ptr, ptr %5, align 8, !tbaa !3
  %19 = call i64 @PACKET_remaining(ptr noundef %18)
  %20 = icmp ugt i64 %19, 0
  br i1 %20, label %21, label %23

21:                                               ; preds = %17, %13, %2
  call void @ERR_new()
  call void @ERR_set_debug(ptr noundef @.str.1, i32 noundef 4351, ptr noundef @__func__.tls_process_next_proto)
  %22 = load ptr, ptr %4, align 8, !tbaa !11
  call void (ptr, i32, i32, ptr, ...) @ossl_statem_fatal(ptr noundef %22, i32 noundef 50, i32 noundef 159, ptr noundef null)
  store i32 0, ptr %3, align 4
  store i32 1, ptr %9, align 4
  br label %41

23:                                               ; preds = %17
  %24 = load ptr, ptr %4, align 8, !tbaa !11
  %25 = getelementptr inbounds nuw %struct.ssl_connection_st, ptr %24, i32 0, i32 84
  %26 = getelementptr inbounds nuw %struct.anon.1, ptr %25, i32 0, i32 30
  %27 = call i32 @PACKET_memdup(ptr noundef %6, ptr noundef %26, ptr noundef %8)
  %28 = icmp ne i32 %27, 0
  br i1 %28, label %34, label %29

29:                                               ; preds = %23
  %30 = load ptr, ptr %4, align 8, !tbaa !11
  %31 = getelementptr inbounds nuw %struct.ssl_connection_st, ptr %30, i32 0, i32 84
  %32 = getelementptr inbounds nuw %struct.anon.1, ptr %31, i32 0, i32 31
  store i64 0, ptr %32, align 8, !tbaa !248
  call void @ERR_new()
  call void @ERR_set_debug(ptr noundef @.str.1, i32 noundef 4357, ptr noundef @__func__.tls_process_next_proto)
  %33 = load ptr, ptr %4, align 8, !tbaa !11
  call void (ptr, i32, i32, ptr, ...) @ossl_statem_fatal(ptr noundef %33, i32 noundef 80, i32 noundef 786691, ptr noundef null)
  store i32 0, ptr %3, align 4
  store i32 1, ptr %9, align 4
  br label %41

34:                                               ; preds = %23
  %35 = load i64, ptr %8, align 8, !tbaa !9
  %36 = trunc i64 %35 to i8
  %37 = zext i8 %36 to i64
  %38 = load ptr, ptr %4, align 8, !tbaa !11
  %39 = getelementptr inbounds nuw %struct.ssl_connection_st, ptr %38, i32 0, i32 84
  %40 = getelementptr inbounds nuw %struct.anon.1, ptr %39, i32 0, i32 31
  store i64 %37, ptr %40, align 8, !tbaa !248
  store i32 3, ptr %3, align 4
  store i32 1, ptr %9, align 4
  br label %41

41:                                               ; preds = %34, %29, %21
  call void @llvm.lifetime.end.p0(i64 8, ptr %8) #9
  call void @llvm.lifetime.end.p0(i64 16, ptr %7) #9
  call void @llvm.lifetime.end.p0(i64 16, ptr %6) #9
  %42 = load i32, ptr %3, align 4
  ret i32 %42
}