; Function Attrs: nounwind uwtable
define range(i32 0, 4) i32 @tls_process_next_proto(ptr noundef %0, ptr noundef captures(none) %1) local_unnamed_addr #1 {
  %.sroa.8.0..sroa_idx.i = getelementptr inbounds nuw i8, ptr %1, i64 8
  %.sroa.8.0.copyload.i = load i64, ptr %.sroa.8.0..sroa_idx.i, align 8, !tbaa !101
  %.not.i.i.i = icmp eq i64 %.sroa.8.0.copyload.i, 0
  br i1 %.not.i.i.i, label %PACKET_get_length_prefixed_1.exit.thread, label %3

3:                                                ; preds = %2
  %.sroa.0.0.copyload.i = load ptr, ptr %1, align 8, !tbaa !162
  %4 = load i8, ptr %.sroa.0.0.copyload.i, align 1, !tbaa !193
  %5 = add i64 %.sroa.8.0.copyload.i, -1
  %6 = zext i8 %4 to i64
  %7 = icmp ult i64 %5, %6
  br i1 %7, label %PACKET_get_length_prefixed_1.exit.thread, label %8

8:                                                ; preds = %3
  %9 = getelementptr inbounds nuw i8, ptr %.sroa.0.0.copyload.i, i64 1
  %10 = getelementptr inbounds nuw i8, ptr %9, i64 %6
  %11 = sub nuw i64 %5, %6
  store ptr %10, ptr %1, align 8, !tbaa !162
  store i64 %11, ptr %.sroa.8.0..sroa_idx.i, align 8, !tbaa !101
  %.not.i.i.i15 = icmp eq i64 %5, %6
  br i1 %.not.i.i.i15, label %PACKET_get_length_prefixed_1.exit.thread, label %12

12:                                               ; preds = %8
  %13 = load i8, ptr %10, align 1, !tbaa !193
  %14 = add i64 %11, -1
  %15 = zext i8 %13 to i64
  %16 = icmp ult i64 %14, %15
  br i1 %16, label %PACKET_get_length_prefixed_1.exit.thread, label %17

17:                                               ; preds = %12
  %18 = getelementptr inbounds nuw i8, ptr %10, i64 1
  %19 = getelementptr inbounds nuw i8, ptr %18, i64 %15
  %20 = sub nuw i64 %14, %15
  store ptr %19, ptr %1, align 8, !tbaa !162
  store i64 %20, ptr %.sroa.8.0..sroa_idx.i, align 8, !tbaa !101
  %.not9 = icmp eq i64 %14, %15
  br i1 %.not9, label %21, label %PACKET_get_length_prefixed_1.exit.thread

PACKET_get_length_prefixed_1.exit.thread:         ; preds = %12, %8, %3, %2, %17
  tail call void @ERR_new() #12
  tail call void @ERR_set_debug(ptr noundef nonnull @.str.1, i32 noundef 4351, ptr noundef nonnull @__func__.tls_process_next_proto) #12
  tail call void (ptr, i32, i32, ptr, ...) @ossl_statem_fatal(ptr noundef %0, i32 noundef 50, i32 noundef 159, ptr noundef null) #12
  br label %31

21:                                               ; preds = %17
  %22 = getelementptr inbounds nuw i8, ptr %0, i64 2816
  %23 = load ptr, ptr %22, align 8, !tbaa !162
  tail call void @CRYPTO_free(ptr noundef %23, ptr noundef nonnull @.str.8, i32 noundef 454) #12
  store ptr null, ptr %22, align 8, !tbaa !162
  %24 = icmp eq i8 %4, 0
  br i1 %24, label %29, label %25

25:                                               ; preds = %21
  %26 = tail call noalias ptr @CRYPTO_memdup(ptr noundef nonnull %9, i64 noundef %6, ptr noundef nonnull @.str.8, i32 noundef 463) #12
  store ptr %26, ptr %22, align 8, !tbaa !162
  %27 = icmp eq ptr %26, null
  br i1 %27, label %PACKET_memdup.exit, label %29

PACKET_memdup.exit:                               ; preds = %25
  %28 = getelementptr inbounds nuw i8, ptr %0, i64 2824
  store i64 0, ptr %28, align 8, !tbaa !241
  tail call void @ERR_new() #12
  tail call void @ERR_set_debug(ptr noundef nonnull @.str.1, i32 noundef 4357, ptr noundef nonnull @__func__.tls_process_next_proto) #12
  tail call void (ptr, i32, i32, ptr, ...) @ossl_statem_fatal(ptr noundef nonnull %0, i32 noundef 80, i32 noundef 786691, ptr noundef null) #12
  br label %31

29:                                               ; preds = %25, %21
  %30 = getelementptr inbounds nuw i8, ptr %0, i64 2824
  store i64 %6, ptr %30, align 8, !tbaa !241
  br label %31

31:                                               ; preds = %29, %PACKET_memdup.exit, %PACKET_get_length_prefixed_1.exit.thread
  %.0 = phi i32 [ 0, %PACKET_get_length_prefixed_1.exit.thread ], [ 3, %29 ], [ 0, %PACKET_memdup.exit ]
  ret i32 %.0
}